target datalayout = "e-m:e-p270:32:32-p271:32:32-p272:64:64-i64:64-i128:128-f80:128-n8:16:32:64-S128"
target triple = "x86_64-pc-linux-gnu"

%class.HandlerTableEntry = type { i32, i32, i32 }
%class.ExceptionHandlerTable = type <{ ptr, i32, i32, %class.ReallocMark, [7 x i8] }>
%class.ReallocMark = type { i8 }
%class.GrowableArrayBase = type { i32, i32 }
%class.GrowableArrayView = type { %class.GrowableArrayBase, ptr }

@g_assert_poison = external global ptr, align 8
@.str = private unnamed_addr constant [49 x i8] c"src/hotspot/share/code/exceptionHandlerTable.cpp\00", align 1
@.str.4 = private unnamed_addr constant [28 x i8] c"guarantee(_size > 0) failed\00", align 1
@.str.5 = private unnamed_addr constant [72 x i8] c"no space allocated => cannot grow the table since it is part of nmethod\00", align 1

; Function Attrs: mustprogress nounwind uwtable
define linkonce_odr hidden void @_ZN11ReallocMark5checkEv(ptr noundef nonnull align 1 dereferenceable(1) %0) #1 comdat align 2 {
  %2 = alloca ptr, align 8
  store ptr %0, ptr %2, align 8
  ret void
}

; Function Attrs: mustprogress nounwind uwtable
define linkonce_odr hidden noundef nonnull align 8 dereferenceable(8) ptr @_ZN17GrowableArrayViewIlE2atEi(ptr noundef nonnull align 8 dereferenceable(16) %0, i32 noundef %1) #1 comdat align 2 {
  %3 = alloca ptr, align 8
  %4 = alloca i32, align 4
  store ptr %0, ptr %3, align 8
  store i32 %1, ptr %4, align 4
  %5 = load ptr, ptr %3, align 8
  %6 = getelementptr inbounds %class.GrowableArrayView, ptr %5, i32 0, i32 1
  %7 = load ptr, ptr %6, align 8
  %8 = load i32, ptr %4, align 4
  %9 = sext i32 %8 to i64
  %10 = getelementptr inbounds i64, ptr %7, i64 %9
  ret ptr %10
}

; Function Attrs: mustprogress nounwind uwtable
define hidden void @_ZN21ExceptionHandlerTable9add_entryE17HandlerTableEntry(ptr noundef nonnull align 8 dereferenceable(17) %0, i64 %1, i32 %2) #1 align 2 {
  %4 = alloca %class.HandlerTableEntry, align 4
  %5 = alloca { i64, i32 }, align 4
  %6 = alloca ptr, align 8
  %7 = alloca i32, align 4
  %8 = getelementptr inbounds { i64, i32 }, ptr %5, i32 0, i32 0
  store i64 %1, ptr %8, align 4
  %9 = getelementptr inbounds { i64, i32 }, ptr %5, i32 0, i32 1
  store i32 %2, ptr %9, align 4
  call void @llvm.memcpy.p0.p0.i64(ptr align 4 %4, ptr align 4 %5, i64 12, i1 false)
  store ptr %0, ptr %6, align 8
  %10 = load ptr, ptr %6, align 8
  %11 = getelementptr inbounds %class.ExceptionHandlerTable, ptr %10, i32 0, i32 3
  call void @_ZN11ReallocMark5checkEv(ptr noundef nonnull align 1 dereferenceable(1) %11)
  %12 = getelementptr inbounds %class.ExceptionHandlerTable, ptr %10, i32 0, i32 1
  %13 = load i32, ptr %12, align 8
  %14 = getelementptr inbounds %class.ExceptionHandlerTable, ptr %10, i32 0, i32 2
  %15 = load i32, ptr %14, align 4
  %16 = icmp sge i32 %13, %15
  br i1 %16, label %17, label %42

17:                                               ; preds = %3
  br label %18

18:                                               ; preds = %17
  %19 = getelementptr inbounds %class.ExceptionHandlerTable, ptr %10, i32 0, i32 2
  %20 = load i32, ptr %19, align 4
  %21 = icmp sgt i32 %20, 0
  br i1 %21, label %24, label %22

22:                                               ; preds = %18
  %23 = load ptr, ptr @g_assert_poison, align 8
  store i8 88, ptr %23, align 1
  call void (ptr, i32, ptr, ptr, ...) @_Z15report_vm_errorPKciS0_S0_z(ptr noundef @.str, i32 noundef 34, ptr noundef @.str.4, ptr noundef @.str.5) #5
  unreachable

24:                                               ; preds = %18
  br label %25

25:                                               ; preds = %24
  %26 = getelementptr inbounds %class.ExceptionHandlerTable, ptr %10, i32 0, i32 2
  %27 = load i32, ptr %26, align 4
  %28 = mul nsw i32 %27, 2
  store i32 %28, ptr %7, align 4
  %29 = getelementptr inbounds %class.ExceptionHandlerTable, ptr %10, i32 0, i32 0
  %30 = load ptr, ptr %29, align 8
  %31 = getelementptr inbounds %class.ExceptionHandlerTable, ptr %10, i32 0, i32 2
  %32 = load i32, ptr %31, align 4
  %33 = sext i32 %32 to i64
  %34 = mul i64 %33, 12
  %35 = load i32, ptr %7, align 4
  %36 = sext i32 %35 to i64
  %37 = mul i64 %36, 12
  %38 = call noundef ptr @_Z25resource_reallocate_bytesPcmmN17AllocFailStrategy13AllocFailEnumE(ptr noundef %30, i64 noundef %34, i64 noundef %37, i32 noundef 0)
  %39 = getelementptr inbounds %class.ExceptionHandlerTable, ptr %10, i32 0, i32 0
  store ptr %38, ptr %39, align 8
  %40 = load i32, ptr %7, align 4
  %41 = getelementptr inbounds %class.ExceptionHandlerTable, ptr %10, i32 0, i32 2
  store i32 %40, ptr %41, align 4
  br label %42

42:                                               ; preds = %25, %3
  %43 = getelementptr inbounds %class.ExceptionHandlerTable, ptr %10, i32 0, i32 0
  %44 = load ptr, ptr %43, align 8
  %45 = getelementptr inbounds %class.ExceptionHandlerTable, ptr %10, i32 0, i32 1
  %46 = load i32, ptr %45, align 8
  %47 = add nsw i32 %46, 1
  store i32 %47, ptr %45, align 8
  %48 = sext i32 %46 to i64
  %49 = getelementptr inbounds %class.HandlerTableEntry, ptr %44, i64 %48
  call void @llvm.memcpy.p0.p0.i64(ptr align 4 %49, ptr align 4 %4, i64 12, i1 false)
  ret void
}

; Function Attrs: mustprogress nounwind uwtable
define linkonce_odr hidden void @_ZN17HandlerTableEntryC2Eiii(ptr noundef nonnull align 4 dereferenceable(12) %0, i32 noundef %1, i32 noundef %2, i32 noundef %3) unnamed_addr #1 comdat align 2 {
  %5 = alloca ptr, align 8
  %6 = alloca i32, align 4
  %7 = alloca i32, align 4
  %8 = alloca i32, align 4
  store ptr %0, ptr %5, align 8
  store i32 %1, ptr %6, align 4
  store i32 %2, ptr %7, align 4
  store i32 %3, ptr %8, align 4
  %9 = load ptr, ptr %5, align 8
  %10 = load i32, ptr %6, align 4
  %11 = getelementptr inbounds %class.HandlerTableEntry, ptr %9, i32 0, i32 0
  store i32 %10, ptr %11, align 4
  %12 = load i32, ptr %7, align 4
  %13 = getelementptr inbounds %class.HandlerTableEntry, ptr %9, i32 0, i32 1
  store i32 %12, ptr %13, align 4
  %14 = load i32, ptr %8, align 4
  %15 = getelementptr inbounds %class.HandlerTableEntry, ptr %9, i32 0, i32 2
  store i32 %14, ptr %15, align 4
  ret void
}

; Function Attrs: mustprogress nounwind uwtable
define linkonce_odr hidden noundef i32 @_ZNK17GrowableArrayBase6lengthEv(ptr noundef nonnull align 4 dereferenceable(8) %0) #1 comdat align 2 {
  %2 = alloca ptr, align 8
  store ptr %0, ptr %2, align 8
  %3 = load ptr, ptr %2, align 8
  %4 = getelementptr inbounds %class.GrowableArrayBase, ptr %3, i32 0, i32 0
  %5 = load i32, ptr %4, align 4
  ret i32 %5
}

; Function Attrs: mustprogress nounwind uwtable
define hidden void @_ZN21ExceptionHandlerTable12add_subtableEiP13GrowableArrayIlES2_S2_(ptr noundef nonnull align 8 dereferenceable(17) %0, i32 noundef %1, ptr noundef %2, ptr noundef %3, ptr noundef %4) #1 align 2 {
  %6 = alloca ptr, align 8
  %7 = alloca i32, align 4
  %8 = alloca ptr, align 8
  %9 = alloca ptr, align 8
  %10 = alloca ptr, align 8
  %11 = alloca %class.HandlerTableEntry, align 4
  %12 = alloca { i64, i32 }, align 4
  %13 = alloca i32, align 4
  %14 = alloca i64, align 8
  %15 = alloca %class.HandlerTableEntry, align 4
  %16 = alloca { i64, i32 }, align 4
  store ptr %0, ptr %6, align 8
  store i32 %1, ptr %7, align 4
  store ptr %2, ptr %8, align 8
  store ptr %3, ptr %9, align 8
  store ptr %4, ptr %10, align 8
  %17 = load ptr, ptr %6, align 8
  %18 = load ptr, ptr %8, align 8
  %19 = call noundef i32 @_ZNK17GrowableArrayBase6lengthEv(ptr noundef nonnull align 4 dereferenceable(8) %18)
  %20 = icmp sgt i32 %19, 0
  br i1 %20, label %21, label %63

21:                                               ; preds = %5
  %22 = load ptr, ptr %8, align 8
  %23 = call noundef i32 @_ZNK17GrowableArrayBase6lengthEv(ptr noundef nonnull align 4 dereferenceable(8) %22)
  %24 = load i32, ptr %7, align 4
  call void @_ZN17HandlerTableEntryC2Eiii(ptr noundef nonnull align 4 dereferenceable(12) %11, i32 noundef %23, i32 noundef %24, i32 noundef 0)
  call void @llvm.memcpy.p0.p0.i64(ptr align 4 %12, ptr align 4 %11, i64 12, i1 false)
  %25 = getelementptr inbounds { i64, i32 }, ptr %12, i32 0, i32 0
  %26 = load i64, ptr %25, align 4
  %27 = getelementptr inbounds { i64, i32 }, ptr %12, i32 0, i32 1
  %28 = load i32, ptr %27, align 4
  call void @_ZN21ExceptionHandlerTable9add_entryE17HandlerTableEntry(ptr noundef nonnull align 8 dereferenceable(17) %17, i64 %26, i32 %28)
  store i32 0, ptr %13, align 4
  br label %29

29:                                               ; preds = %59, %21
  %30 = load i32, ptr %13, align 4
  %31 = load ptr, ptr %8, align 8
  %32 = call noundef i32 @_ZNK17GrowableArrayBase6lengthEv(ptr noundef nonnull align 4 dereferenceable(8) %31)
  %33 = icmp slt i32 %30, %32
  br i1 %33, label %34, label %62

34:                                               ; preds = %29
  store i64 0, ptr %14, align 8
  %35 = load ptr, ptr %9, align 8
  %36 = icmp ne ptr %35, null
  br i1 %36, label %37, label %42

37:                                               ; preds = %34
  %38 = load ptr, ptr %9, align 8
  %39 = load i32, ptr %13, align 4
  %40 = call noundef nonnull align 8 dereferenceable(8) ptr @_ZN17GrowableArrayViewIlE2atEi(ptr noundef nonnull align 8 dereferenceable(16) %38, i32 noundef %39)
  %41 = load i64, ptr %40, align 8
  store i64 %41, ptr %14, align 8
  br label %42

42:                                               ; preds = %37, %34
  %43 = load ptr, ptr %8, align 8
  %44 = load i32, ptr %13, align 4
  %45 = call noundef nonnull align 8 dereferenceable(8) ptr @_ZN17GrowableArrayViewIlE2atEi(ptr noundef nonnull align 8 dereferenceable(16) %43, i32 noundef %44)
  %46 = load i64, ptr %45, align 8
  %47 = trunc i64 %46 to i32
  %48 = load ptr, ptr %10, align 8
  %49 = load i32, ptr %13, align 4
  %50 = call noundef nonnull align 8 dereferenceable(8) ptr @_ZN17GrowableArrayViewIlE2atEi(ptr noundef nonnull align 8 dereferenceable(16) %48, i32 noundef %49)
  %51 = load i64, ptr %50, align 8
  %52 = trunc i64 %51 to i32
  %53 = load i64, ptr %14, align 8
  %54 = trunc i64 %53 to i32
  call void @_ZN17HandlerTableEntryC2Eiii(ptr noundef nonnull align 4 dereferenceable(12) %15, i32 noundef %47, i32 noundef %52, i32 noundef %54)
  call void @llvm.memcpy.p0.p0.i64(ptr align 4 %16, ptr align 4 %15, i64 12, i1 false)
  %55 = getelementptr inbounds { i64, i32 }, ptr %16, i32 0, i32 0
  %56 = load i64, ptr %55, align 4
  %57 = getelementptr inbounds { i64, i32 }, ptr %16, i32 0, i32 1
  %58 = load i32, ptr %57, align 4
  call void @_ZN21ExceptionHandlerTable9add_entryE17HandlerTableEntry(ptr noundef nonnull align 8 dereferenceable(17) %17, i64 %56, i32 %58)
  br label %59

59:                                               ; preds = %42
  %60 = load i32, ptr %13, align 4
  %61 = add nsw i32 %60, 1
  store i32 %61, ptr %13, align 4
  br label %29, !llvm.loop !8

62:                                               ; preds = %29
  br label %63

63:                                               ; preds = %62, %5
  ret void
}