; Function Attrs: mustprogress nounwind uwtable
define hidden void @_ZN21ExceptionHandlerTable12add_subtableEiP13GrowableArrayIlES2_S2_(ptr nocapture noundef nonnull align 8 dereferenceable(17) %0, i32 noundef %1, ptr nocapture noundef readonly %2, ptr noundef readonly %3, ptr nocapture noundef readonly %4) local_unnamed_addr #0 align 2 {
  %6 = load i32, ptr %2, align 4
  %7 = icmp sgt i32 %6, 0
  br i1 %7, label %8, label %.loopexit

8:                                                ; preds = %5
  %.sroa.225.0.insert.ext = zext i32 %1 to i64
  %.sroa.225.0.insert.shift = shl nuw i64 %.sroa.225.0.insert.ext, 32
  %.sroa.024.0.insert.ext = zext nneg i32 %6 to i64
  %.sroa.024.0.insert.insert = or disjoint i64 %.sroa.225.0.insert.shift, %.sroa.024.0.insert.ext
  %9 = getelementptr inbounds i8, ptr %0, i64 8
  %10 = load i32, ptr %9, align 8
  %11 = getelementptr inbounds i8, ptr %0, i64 12
  %12 = load i32, ptr %11, align 4
  %.not.i = icmp slt i32 %10, %12
  br i1 %.not.i, label %._crit_edge.i, label %13

._crit_edge.i:                                    ; preds = %8
  %.pre.i = load ptr, ptr %0, align 8
  br label %_ZN21ExceptionHandlerTable9add_entryE17HandlerTableEntry.exit

13:                                               ; preds = %8
  %14 = icmp sgt i32 %12, 0
  br i1 %14, label %17, label %15

15:                                               ; preds = %13
  %16 = load ptr, ptr @g_assert_poison, align 8
  store i8 88, ptr %16, align 1
  tail call void (ptr, i32, ptr, ptr, ...) @_Z15report_vm_errorPKciS0_S0_z(ptr noundef nonnull @.str, i32 noundef 34, ptr noundef nonnull @.str.4, ptr noundef nonnull @.str.5) #8
  unreachable

17:                                               ; preds = %13
  %18 = shl nuw nsw i32 %12, 1
  %19 = load ptr, ptr %0, align 8
  %20 = zext nneg i32 %12 to i64
  %21 = mul nuw nsw i64 %20, 12
  %22 = zext nneg i32 %18 to i64
  %23 = mul nuw nsw i64 %22, 12
  %24 = tail call noundef ptr @_Z25resource_reallocate_bytesPcmmN17AllocFailStrategy13AllocFailEnumE(ptr noundef %19, i64 noundef %21, i64 noundef %23, i32 noundef 0) #9
  store ptr %24, ptr %0, align 8
  store i32 %18, ptr %11, align 4
  %.pre4.i = load i32, ptr %9, align 8
  br label %_ZN21ExceptionHandlerTable9add_entryE17HandlerTableEntry.exit

_ZN21ExceptionHandlerTable9add_entryE17HandlerTableEntry.exit: ; preds = %._crit_edge.i, %17
  %25 = phi i32 [ %10, %._crit_edge.i ], [ %.pre4.i, %17 ]
  %26 = phi ptr [ %.pre.i, %._crit_edge.i ], [ %24, %17 ]
  %27 = add nsw i32 %25, 1
  store i32 %27, ptr %9, align 8
  %28 = sext i32 %25 to i64
  %29 = getelementptr inbounds %class.HandlerTableEntry, ptr %26, i64 %28
  store i64 %.sroa.024.0.insert.insert, ptr %29, align 4
  %.sroa.23.0..sroa_idx.i = getelementptr inbounds i8, ptr %29, i64 8
  store i32 0, ptr %.sroa.23.0..sroa_idx.i, align 4
  %30 = load i32, ptr %2, align 4
  %31 = icmp sgt i32 %30, 0
  br i1 %31, label %.lr.ph, label %.loopexit

.lr.ph:                                           ; preds = %_ZN21ExceptionHandlerTable9add_entryE17HandlerTableEntry.exit
  %.not = icmp eq ptr %3, null
  %32 = getelementptr inbounds i8, ptr %3, i64 8
  %33 = getelementptr inbounds i8, ptr %2, i64 8
  %34 = getelementptr inbounds i8, ptr %4, i64 8
  br i1 %.not, label %.lr.ph.split.us, label %.lr.ph.split

.lr.ph.split.us:                                  ; preds = %.lr.ph, %_ZN21ExceptionHandlerTable9add_entryE17HandlerTableEntry.exit23.us
  %indvars.iv31 = phi i64 [ %indvars.iv.next32, %_ZN21ExceptionHandlerTable9add_entryE17HandlerTableEntry.exit23.us ], [ 0, %.lr.ph ]
  %35 = load ptr, ptr %33, align 8
  %36 = getelementptr inbounds i64, ptr %35, i64 %indvars.iv31
  %37 = load i64, ptr %36, align 8
  %38 = load ptr, ptr %34, align 8
  %39 = getelementptr inbounds i64, ptr %38, i64 %indvars.iv31
  %40 = load i64, ptr %39, align 8
  %.sroa.2.0.insert.ext.us = shl i64 %40, 32
  %.sroa.0.0.insert.ext.us = and i64 %37, 4294967295
  %.sroa.0.0.insert.insert.us = or disjoint i64 %.sroa.2.0.insert.ext.us, %.sroa.0.0.insert.ext.us
  %41 = load i32, ptr %9, align 8
  %42 = load i32, ptr %11, align 4
  %.not.i18.us = icmp slt i32 %41, %42
  br i1 %.not.i18.us, label %._crit_edge.i21.us, label %43

43:                                               ; preds = %.lr.ph.split.us
  %44 = icmp sgt i32 %42, 0
  br i1 %44, label %45, label %.split.us

45:                                               ; preds = %43
  %46 = shl nuw nsw i32 %42, 1
  %47 = load ptr, ptr %0, align 8
  %48 = zext nneg i32 %42 to i64
  %49 = mul nuw nsw i64 %48, 12
  %50 = zext nneg i32 %46 to i64
  %51 = mul nuw nsw i64 %50, 12
  %52 = tail call noundef ptr @_Z25resource_reallocate_bytesPcmmN17AllocFailStrategy13AllocFailEnumE(ptr noundef %47, i64 noundef %49, i64 noundef %51, i32 noundef 0) #9
  store ptr %52, ptr %0, align 8
  store i32 %46, ptr %11, align 4
  %.pre4.i19.us = load i32, ptr %9, align 8
  br label %_ZN21ExceptionHandlerTable9add_entryE17HandlerTableEntry.exit23.us

._crit_edge.i21.us:                               ; preds = %.lr.ph.split.us
  %.pre.i22.us = load ptr, ptr %0, align 8
  br label %_ZN21ExceptionHandlerTable9add_entryE17HandlerTableEntry.exit23.us

_ZN21ExceptionHandlerTable9add_entryE17HandlerTableEntry.exit23.us: ; preds = %._crit_edge.i21.us, %45
  %53 = phi i32 [ %41, %._crit_edge.i21.us ], [ %.pre4.i19.us, %45 ]
  %54 = phi ptr [ %.pre.i22.us, %._crit_edge.i21.us ], [ %52, %45 ]
  %55 = add nsw i32 %53, 1
  store i32 %55, ptr %9, align 8
  %56 = sext i32 %53 to i64
  %57 = getelementptr inbounds %class.HandlerTableEntry, ptr %54, i64 %56
  store i64 %.sroa.0.0.insert.insert.us, ptr %57, align 4
  %.sroa.23.0..sroa_idx.i20.us = getelementptr inbounds i8, ptr %57, i64 8
  store i32 0, ptr %.sroa.23.0..sroa_idx.i20.us, align 4
  %indvars.iv.next32 = add nuw nsw i64 %indvars.iv31, 1
  %58 = load i32, ptr %2, align 4
  %59 = sext i32 %58 to i64
  %60 = icmp slt i64 %indvars.iv.next32, %59
  br i1 %60, label %.lr.ph.split.us, label %.loopexit, !llvm.loop !8

.lr.ph.split:                                     ; preds = %.lr.ph, %_ZN21ExceptionHandlerTable9add_entryE17HandlerTableEntry.exit23
  %indvars.iv = phi i64 [ %indvars.iv.next, %_ZN21ExceptionHandlerTable9add_entryE17HandlerTableEntry.exit23 ], [ 0, %.lr.ph ]
  %61 = load ptr, ptr %32, align 8
  %62 = getelementptr inbounds i64, ptr %61, i64 %indvars.iv
  %63 = load i64, ptr %62, align 8
  %64 = load ptr, ptr %33, align 8
  %65 = getelementptr inbounds i64, ptr %64, i64 %indvars.iv
  %66 = load i64, ptr %65, align 8
  %67 = load ptr, ptr %34, align 8
  %68 = getelementptr inbounds i64, ptr %67, i64 %indvars.iv
  %69 = load i64, ptr %68, align 8
  %70 = trunc i64 %63 to i32
  %.sroa.2.0.insert.ext = shl i64 %69, 32
  %.sroa.0.0.insert.ext = and i64 %66, 4294967295
  %.sroa.0.0.insert.insert = or disjoint i64 %.sroa.2.0.insert.ext, %.sroa.0.0.insert.ext
  %71 = load i32, ptr %9, align 8
  %72 = load i32, ptr %11, align 4
  %.not.i18 = icmp slt i32 %71, %72
  br i1 %.not.i18, label %._crit_edge.i21, label %73

._crit_edge.i21:                                  ; preds = %.lr.ph.split
  %.pre.i22 = load ptr, ptr %0, align 8
  br label %_ZN21ExceptionHandlerTable9add_entryE17HandlerTableEntry.exit23

73:                                               ; preds = %.lr.ph.split
  %74 = icmp sgt i32 %72, 0
  br i1 %74, label %76, label %.split.us

.split.us:                                        ; preds = %73, %43
  %75 = load ptr, ptr @g_assert_poison, align 8
  store i8 88, ptr %75, align 1
  tail call void (ptr, i32, ptr, ptr, ...) @_Z15report_vm_errorPKciS0_S0_z(ptr noundef nonnull @.str, i32 noundef 34, ptr noundef nonnull @.str.4, ptr noundef nonnull @.str.5) #8
  unreachable

76:                                               ; preds = %73
  %77 = shl nuw nsw i32 %72, 1
  %78 = load ptr, ptr %0, align 8
  %79 = zext nneg i32 %72 to i64
  %80 = mul nuw nsw i64 %79, 12
  %81 = zext nneg i32 %77 to i64
  %82 = mul nuw nsw i64 %81, 12
  %83 = tail call noundef ptr @_Z25resource_reallocate_bytesPcmmN17AllocFailStrategy13AllocFailEnumE(ptr noundef %78, i64 noundef %80, i64 noundef %82, i32 noundef 0) #9
  store ptr %83, ptr %0, align 8
  store i32 %77, ptr %11, align 4
  %.pre4.i19 = load i32, ptr %9, align 8
  br label %_ZN21ExceptionHandlerTable9add_entryE17HandlerTableEntry.exit23

_ZN21ExceptionHandlerTable9add_entryE17HandlerTableEntry.exit23: ; preds = %._crit_edge.i21, %76
  %84 = phi i32 [ %71, %._crit_edge.i21 ], [ %.pre4.i19, %76 ]
  %85 = phi ptr [ %.pre.i22, %._crit_edge.i21 ], [ %83, %76 ]
  %86 = add nsw i32 %84, 1
  store i32 %86, ptr %9, align 8
  %87 = sext i32 %84 to i64
  %88 = getelementptr inbounds %class.HandlerTableEntry, ptr %85, i64 %87
  store i64 %.sroa.0.0.insert.insert, ptr %88, align 4
  %.sroa.23.0..sroa_idx.i20 = getelementptr inbounds i8, ptr %88, i64 8
  store i32 %70, ptr %.sroa.23.0..sroa_idx.i20, align 4
  %indvars.iv.next = add nuw nsw i64 %indvars.iv, 1
  %89 = load i32, ptr %2, align 4
  %90 = sext i32 %89 to i64
  %91 = icmp slt i64 %indvars.iv.next, %90
  br i1 %91, label %.lr.ph.split, label %.loopexit, !llvm.loop !8

.loopexit:                                        ; preds = %_ZN21ExceptionHandlerTable9add_entryE17HandlerTableEntry.exit23, %_ZN21ExceptionHandlerTable9add_entryE17HandlerTableEntry.exit23.us, %_ZN21ExceptionHandlerTable9add_entryE17HandlerTableEntry.exit, %5
  ret void
}